target datalayout = "e-m:e-p270:32:32-p271:32:32-p272:64:64-i64:64-i128:128-f80:128-n8:16:32:64-S128"
target triple = "x86_64-pc-linux-gnu"

%struct.cliCommandArg = type { ptr, i32, ptr, ptr, i32, i32, ptr, ptr, i32, i32, i32, i32 }

; Function Attrs: nounwind uwtable
define internal i32 @matchToken(ptr noundef %0, ptr noundef %1) #0 {
  %3 = alloca i32, align 4
  %4 = alloca ptr, align 8
  %5 = alloca ptr, align 8
  store ptr %0, ptr %4, align 8, !tbaa !42
  store ptr %1, ptr %5, align 8, !tbaa !43
  %6 = load ptr, ptr %5, align 8, !tbaa !43
  %7 = getelementptr inbounds nuw %struct.cliCommandArg, ptr %6, i32 0, i32 2
  %8 = load ptr, ptr %7, align 8, !tbaa !379
  %9 = load ptr, ptr %4, align 8, !tbaa !42
  %10 = getelementptr inbounds ptr, ptr %9, i64 0
  %11 = load ptr, ptr %10, align 8, !tbaa !5
  %12 = call i32 @strcasecmp(ptr noundef %8, ptr noundef %11) #16
  %13 = icmp ne i32 %12, 0
  br i1 %13, label %14, label %15

14:                                               ; preds = %2
  store i32 0, ptr %3, align 4
  br label %20

15:                                               ; preds = %2
  %16 = load ptr, ptr %5, align 8, !tbaa !43
  %17 = getelementptr inbounds nuw %struct.cliCommandArg, ptr %16, i32 0, i32 9
  store i32 1, ptr %17, align 4, !tbaa !387
  %18 = load ptr, ptr %5, align 8, !tbaa !43
  %19 = getelementptr inbounds nuw %struct.cliCommandArg, ptr %18, i32 0, i32 8
  store i32 1, ptr %19, align 8, !tbaa !386
  store i32 1, ptr %3, align 4
  br label %20

20:                                               ; preds = %15, %14
  %21 = load i32, ptr %3, align 4
  ret i32 %21
}

; Function Attrs: nounwind uwtable
define internal i32 @matchArgOnce(ptr noundef %0, i32 noundef %1, ptr noundef %2) #0 {
  %4 = alloca i32, align 4
  %5 = alloca ptr, align 8
  %6 = alloca i32, align 4
  %7 = alloca ptr, align 8
  store ptr %0, ptr %5, align 8, !tbaa !42
  store i32 %1, ptr %6, align 4, !tbaa !10
  store ptr %2, ptr %7, align 8, !tbaa !43
  %8 = load ptr, ptr %7, align 8, !tbaa !43
  %9 = getelementptr inbounds nuw %struct.cliCommandArg, ptr %8, i32 0, i32 2
  %10 = load ptr, ptr %9, align 8, !tbaa !379
  %11 = icmp ne ptr %10, null
  br i1 %11, label %12, label %35

12:                                               ; preds = %3
  %13 = load ptr, ptr %5, align 8, !tbaa !42
  %14 = load ptr, ptr %7, align 8, !tbaa !43
  %15 = call i32 @matchToken(ptr noundef %13, ptr noundef %14)
  %16 = icmp ne i32 %15, 0
  br i1 %16, label %18, label %17

17:                                               ; preds = %12
  store i32 0, ptr %4, align 4
  br label %46

18:                                               ; preds = %12
  %19 = load ptr, ptr %7, align 8, !tbaa !43
  %20 = getelementptr inbounds nuw %struct.cliCommandArg, ptr %19, i32 0, i32 1
  %21 = load i32, ptr %20, align 8, !tbaa !380
  %22 = icmp eq i32 %21, 6
  br i1 %22, label %23, label %26

23:                                               ; preds = %18
  %24 = load ptr, ptr %7, align 8, !tbaa !43
  %25 = getelementptr inbounds nuw %struct.cliCommandArg, ptr %24, i32 0, i32 11
  store i32 1, ptr %25, align 4, !tbaa !389
  store i32 1, ptr %4, align 4
  br label %46

26:                                               ; preds = %18
  %27 = load i32, ptr %6, align 4, !tbaa !10
  %28 = icmp eq i32 %27, 1
  br i1 %28, label %29, label %30

29:                                               ; preds = %26
  store i32 1, ptr %4, align 4
  br label %46

30:                                               ; preds = %26
  %31 = load ptr, ptr %5, align 8, !tbaa !42
  %32 = getelementptr inbounds nuw ptr, ptr %31, i32 1
  store ptr %32, ptr %5, align 8, !tbaa !42
  %33 = load i32, ptr %6, align 4, !tbaa !10
  %34 = add nsw i32 %33, -1
  store i32 %34, ptr %6, align 4, !tbaa !10
  br label %35

35:                                               ; preds = %30, %3
  %36 = load ptr, ptr %5, align 8, !tbaa !42
  %37 = load i32, ptr %6, align 4, !tbaa !10
  %38 = load ptr, ptr %7, align 8, !tbaa !43
  %39 = call i32 @matchNoTokenArg(ptr noundef %36, i32 noundef %37, ptr noundef %38)
  %40 = icmp ne i32 %39, 0
  br i1 %40, label %42, label %41

41:                                               ; preds = %35
  store i32 0, ptr %4, align 4
  br label %46

42:                                               ; preds = %35
  %43 = load ptr, ptr %7, align 8, !tbaa !43
  %44 = getelementptr inbounds nuw %struct.cliCommandArg, ptr %43, i32 0, i32 8
  %45 = load i32, ptr %44, align 8, !tbaa !386
  store i32 %45, ptr %4, align 4
  br label %46

46:                                               ; preds = %42, %41, %29, %23, %17
  %47 = load i32, ptr %4, align 4
  ret i32 %47
}

; Function Attrs: nounwind uwtable
define internal i32 @matchArg(ptr noundef %0, i32 noundef %1, ptr noundef %2) #0 {
  %4 = alloca i32, align 4
  %5 = alloca ptr, align 8
  %6 = alloca i32, align 4
  %7 = alloca ptr, align 8
  %8 = alloca i32, align 4
  %9 = alloca i32, align 4
  %10 = alloca i32, align 4
  store ptr %0, ptr %5, align 8, !tbaa !42
  store i32 %1, ptr %6, align 4, !tbaa !10
  store ptr %2, ptr %7, align 8, !tbaa !43
  call void @llvm.lifetime.start.p0(i64 4, ptr %8) #15
  store i32 0, ptr %8, align 4, !tbaa !10
  call void @llvm.lifetime.start.p0(i64 4, ptr %9) #15
  %11 = load ptr, ptr %5, align 8, !tbaa !42
  %12 = load i32, ptr %6, align 4, !tbaa !10
  %13 = load ptr, ptr %7, align 8, !tbaa !43
  %14 = call i32 @matchArgOnce(ptr noundef %11, i32 noundef %12, ptr noundef %13)
  store i32 %14, ptr %9, align 4, !tbaa !10
  %15 = load ptr, ptr %7, align 8, !tbaa !43
  %16 = getelementptr inbounds nuw %struct.cliCommandArg, ptr %15, i32 0, i32 4
  %17 = load i32, ptr %16, align 8, !tbaa !383
  %18 = and i32 %17, 2
  %19 = icmp ne i32 %18, 0
  br i1 %19, label %22, label %20

20:                                               ; preds = %3
  %21 = load i32, ptr %9, align 4, !tbaa !10
  store i32 %21, ptr %4, align 4
  store i32 1, ptr %10, align 4
  br label %85

22:                                               ; preds = %3
  %23 = load i32, ptr %9, align 4, !tbaa !10
  %24 = load i32, ptr %8, align 4, !tbaa !10
  %25 = add nsw i32 %24, %23
  store i32 %25, ptr %8, align 4, !tbaa !10
  br label %26

26:                                               ; preds = %77, %22
  %27 = load ptr, ptr %7, align 8, !tbaa !43
  %28 = getelementptr inbounds nuw %struct.cliCommandArg, ptr %27, i32 0, i32 11
  %29 = load i32, ptr %28, align 4, !tbaa !389
  %30 = icmp ne i32 %29, 0
  br i1 %30, label %31, label %35

31:                                               ; preds = %26
  %32 = load i32, ptr %8, align 4, !tbaa !10
  %33 = load i32, ptr %6, align 4, !tbaa !10
  %34 = icmp slt i32 %32, %33
  br label %35

35:                                               ; preds = %31, %26
  %36 = phi i1 [ false, %26 ], [ %34, %31 ]
  br i1 %36, label %37, label %81

37:                                               ; preds = %35
  %38 = load ptr, ptr %7, align 8, !tbaa !43
  call void @clearMatchedArgs(ptr noundef %38, i32 noundef 1)
  %39 = load ptr, ptr %7, align 8, !tbaa !43
  %40 = getelementptr inbounds nuw %struct.cliCommandArg, ptr %39, i32 0, i32 2
  %41 = load ptr, ptr %40, align 8, !tbaa !379
  %42 = icmp ne ptr %41, null
  br i1 %42, label %43, label %67

43:                                               ; preds = %37
  %44 = load ptr, ptr %7, align 8, !tbaa !43
  %45 = getelementptr inbounds nuw %struct.cliCommandArg, ptr %44, i32 0, i32 4
  %46 = load i32, ptr %45, align 8, !tbaa !383
  %47 = and i32 %46, 4
  %48 = icmp ne i32 %47, 0
  br i1 %48, label %67, label %49

49:                                               ; preds = %43
  %50 = load ptr, ptr %5, align 8, !tbaa !42
  %51 = load i32, ptr %8, align 4, !tbaa !10
  %52 = sext i32 %51 to i64
  %53 = getelementptr inbounds ptr, ptr %50, i64 %52
  %54 = load i32, ptr %6, align 4, !tbaa !10
  %55 = load i32, ptr %8, align 4, !tbaa !10
  %56 = sub nsw i32 %54, %55
  %57 = load ptr, ptr %7, align 8, !tbaa !43
  %58 = call i32 @matchNoTokenArg(ptr noundef %53, i32 noundef %56, ptr noundef %57)
  store i32 %58, ptr %9, align 4, !tbaa !10
  %59 = load ptr, ptr %7, align 8, !tbaa !43
  %60 = getelementptr inbounds nuw %struct.cliCommandArg, ptr %59, i32 0, i32 8
  %61 = load i32, ptr %60, align 8, !tbaa !386
  %62 = icmp ne i32 %61, 0
  br i1 %62, label %63, label %66

63:                                               ; preds = %49
  %64 = load ptr, ptr %7, align 8, !tbaa !43
  %65 = getelementptr inbounds nuw %struct.cliCommandArg, ptr %64, i32 0, i32 9
  store i32 1, ptr %65, align 4, !tbaa !387
  br label %66

66:                                               ; preds = %63, %49
  br label %77

67:                                               ; preds = %43, %37
  %68 = load ptr, ptr %5, align 8, !tbaa !42
  %69 = load i32, ptr %8, align 4, !tbaa !10
  %70 = sext i32 %69 to i64
  %71 = getelementptr inbounds ptr, ptr %68, i64 %70
  %72 = load i32, ptr %6, align 4, !tbaa !10
  %73 = load i32, ptr %8, align 4, !tbaa !10
  %74 = sub nsw i32 %72, %73
  %75 = load ptr, ptr %7, align 8, !tbaa !43
  %76 = call i32 @matchArgOnce(ptr noundef %71, i32 noundef %74, ptr noundef %75)
  store i32 %76, ptr %9, align 4, !tbaa !10
  br label %77

77:                                               ; preds = %67, %66
  %78 = load i32, ptr %9, align 4, !tbaa !10
  %79 = load i32, ptr %8, align 4, !tbaa !10
  %80 = add nsw i32 %79, %78
  store i32 %80, ptr %8, align 4, !tbaa !10
  br label %26, !llvm.loop !397

81:                                               ; preds = %35
  %82 = load ptr, ptr %7, align 8, !tbaa !43
  %83 = getelementptr inbounds nuw %struct.cliCommandArg, ptr %82, i32 0, i32 11
  store i32 0, ptr %83, align 4, !tbaa !389
  %84 = load i32, ptr %8, align 4, !tbaa !10
  store i32 %84, ptr %4, align 4
  store i32 1, ptr %10, align 4
  br label %85

85:                                               ; preds = %81, %20
  call void @llvm.lifetime.end.p0(i64 4, ptr %9) #15
  call void @llvm.lifetime.end.p0(i64 4, ptr %8) #15
  %86 = load i32, ptr %4, align 4
  ret i32 %86
}