; Function Attrs: nofree nounwind uwtable
define internal fastcc i32 @matchArg(ptr noundef nonnull readonly captures(none) %0, i32 noundef %1, ptr noundef captures(none) %2) unnamed_addr #14 {
  %4 = getelementptr inbounds nuw i8, ptr %2, i64 16
  %5 = load ptr, ptr %4, align 8, !tbaa !375
  %.not.i = icmp eq ptr %5, null
  br i1 %.not.i, label %21, label %6

6:                                                ; preds = %3
  %.val.i = load ptr, ptr %0, align 8, !tbaa !24
  %7 = tail call i32 @strcasecmp(ptr noundef nonnull %5, ptr noundef readonly %.val.i) #35
  %.not.i43 = icmp eq i32 %7, 0
  br i1 %.not.i43, label %8, label %matchArgOnce.exit

8:                                                ; preds = %6
  %9 = getelementptr inbounds nuw i8, ptr %2, i64 60
  store i32 1, ptr %9, align 4, !tbaa !392
  %10 = getelementptr inbounds nuw i8, ptr %2, i64 56
  store i32 1, ptr %10, align 8, !tbaa !385
  %11 = getelementptr inbounds nuw i8, ptr %2, i64 8
  %12 = load i32, ptr %11, align 8, !tbaa !376
  %13 = icmp eq i32 %12, 6
  br i1 %13, label %14, label %16

14:                                               ; preds = %8
  %15 = getelementptr inbounds nuw i8, ptr %2, i64 68
  store i32 1, ptr %15, align 4, !tbaa !387
  br label %matchArgOnce.exit

16:                                               ; preds = %8
  %17 = icmp eq i32 %1, 1
  br i1 %17, label %matchArgOnce.exit, label %18

18:                                               ; preds = %16
  %19 = getelementptr inbounds nuw i8, ptr %0, i64 8
  %20 = add nsw i32 %1, -1
  br label %21

21:                                               ; preds = %18, %3
  %.013.i = phi ptr [ %19, %18 ], [ %0, %3 ]
  %.012.i = phi i32 [ %20, %18 ], [ %1, %3 ]
  %22 = tail call fastcc i32 @matchNoTokenArg(ptr noundef %.013.i, i32 noundef %.012.i, ptr noundef nonnull %2)
  %.not16.i = icmp eq i32 %22, 0
  br i1 %.not16.i, label %matchArgOnce.exit, label %23

23:                                               ; preds = %21
  %24 = getelementptr inbounds nuw i8, ptr %2, i64 56
  %25 = load i32, ptr %24, align 8, !tbaa !385
  br label %matchArgOnce.exit

matchArgOnce.exit:                                ; preds = %6, %14, %16, %21, %23
  %.0.i = phi i32 [ 1, %14 ], [ %25, %23 ], [ 1, %16 ], [ 0, %21 ], [ 0, %6 ]
  %26 = getelementptr inbounds nuw i8, ptr %2, i64 32
  %27 = load i32, ptr %26, align 8, !tbaa !379
  %28 = and i32 %27, 2
  %.not = icmp eq i32 %28, 0
  br i1 %.not, label %72, label %.preheader

.preheader:                                       ; preds = %matchArgOnce.exit
  %29 = getelementptr inbounds nuw i8, ptr %2, i64 68
  %30 = load i32, ptr %29, align 4, !tbaa !387
  %31 = icmp ne i32 %30, 0
  %32 = icmp slt i32 %.0.i, %1
  %33 = select i1 %31, i1 %32, i1 false
  br i1 %33, label %.lr.ph, label %._crit_edge

.lr.ph:                                           ; preds = %.preheader
  %34 = getelementptr inbounds nuw i8, ptr %2, i64 60
  %35 = getelementptr inbounds nuw i8, ptr %2, i64 56
  %36 = getelementptr inbounds nuw i8, ptr %2, i64 8
  br label %37

37:                                               ; preds = %.lr.ph, %matchArgOnce.exit42
  %.02952 = phi i32 [ %.0.i, %.lr.ph ], [ %67, %matchArgOnce.exit42 ]
  tail call fastcc void @clearMatchedArgs(ptr noundef nonnull %2, i32 noundef 1)
  %38 = load ptr, ptr %4, align 8, !tbaa !375
  %.not32 = icmp eq ptr %38, null
  br i1 %.not32, label %.thread, label %42

.thread:                                          ; preds = %37
  %39 = sext i32 %.02952 to i64
  %40 = getelementptr inbounds ptr, ptr %0, i64 %39
  %41 = sub nsw i32 %1, %.02952
  br label %63

42:                                               ; preds = %37
  %43 = load i32, ptr %26, align 8, !tbaa !379
  %44 = and i32 %43, 4
  %.not33 = icmp eq i32 %44, 0
  %45 = sext i32 %.02952 to i64
  %46 = getelementptr inbounds ptr, ptr %0, i64 %45
  %47 = sub nsw i32 %1, %.02952
  br i1 %.not33, label %48, label %52

48:                                               ; preds = %42
  %49 = tail call fastcc i32 @matchNoTokenArg(ptr noundef %46, i32 noundef %47, ptr noundef nonnull %2)
  %50 = load i32, ptr %35, align 8, !tbaa !385
  %.not34 = icmp eq i32 %50, 0
  br i1 %.not34, label %matchArgOnce.exit42, label %51

51:                                               ; preds = %48
  store i32 1, ptr %34, align 4, !tbaa !392
  br label %matchArgOnce.exit42

52:                                               ; preds = %42
  %.val.i36 = load ptr, ptr %46, align 8, !tbaa !24
  %53 = tail call i32 @strcasecmp(ptr noundef nonnull %38, ptr noundef readonly %.val.i36) #35
  %.not.i45 = icmp eq i32 %53, 0
  br i1 %.not.i45, label %54, label %matchArgOnce.exit42

54:                                               ; preds = %52
  store i32 1, ptr %34, align 4, !tbaa !392
  store i32 1, ptr %35, align 8, !tbaa !385
  %55 = load i32, ptr %36, align 8, !tbaa !376
  %56 = icmp eq i32 %55, 6
  br i1 %56, label %57, label %58

57:                                               ; preds = %54
  store i32 1, ptr %29, align 4, !tbaa !387
  br label %matchArgOnce.exit42

58:                                               ; preds = %54
  %59 = icmp eq i32 %47, 1
  br i1 %59, label %matchArgOnce.exit42, label %60

60:                                               ; preds = %58
  %61 = getelementptr inbounds nuw i8, ptr %46, i64 8
  %62 = add nsw i32 %47, -1
  br label %63

63:                                               ; preds = %.thread, %60
  %.013.i38 = phi ptr [ %61, %60 ], [ %40, %.thread ]
  %.012.i39 = phi i32 [ %62, %60 ], [ %41, %.thread ]
  %64 = tail call fastcc i32 @matchNoTokenArg(ptr noundef %.013.i38, i32 noundef %.012.i39, ptr noundef nonnull %2)
  %.not16.i40 = icmp eq i32 %64, 0
  br i1 %.not16.i40, label %matchArgOnce.exit42, label %65

65:                                               ; preds = %63
  %66 = load i32, ptr %35, align 8, !tbaa !385
  br label %matchArgOnce.exit42

matchArgOnce.exit42:                              ; preds = %52, %65, %63, %58, %57, %48, %51
  %.0 = phi i32 [ %49, %51 ], [ %49, %48 ], [ 1, %57 ], [ %66, %65 ], [ 1, %58 ], [ 0, %63 ], [ 0, %52 ]
  %67 = add nsw i32 %.0, %.02952
  %68 = load i32, ptr %29, align 4, !tbaa !387
  %69 = icmp ne i32 %68, 0
  %70 = icmp slt i32 %67, %1
  %71 = select i1 %69, i1 %70, i1 false
  br i1 %71, label %37, label %._crit_edge, !llvm.loop !393

._crit_edge:                                      ; preds = %matchArgOnce.exit42, %.preheader
  %.029.lcssa = phi i32 [ %.0.i, %.preheader ], [ %67, %matchArgOnce.exit42 ]
  store i32 0, ptr %29, align 4, !tbaa !387
  br label %72

72:                                               ; preds = %matchArgOnce.exit, %._crit_edge
  %.030 = phi i32 [ %.029.lcssa, %._crit_edge ], [ %.0.i, %matchArgOnce.exit ]
  ret i32 %.030
}